target datalayout = "e-m:e-p270:32:32-p271:32:32-p272:64:64-i64:64-i128:128-f80:128-n8:16:32:64-S128"
target triple = "x86_64-pc-linux-gnu"

%struct.GifFileType = type { i32, i32, i32, i32, i8, ptr, i32, %struct.GifImageDesc, ptr, i32, ptr, i32, ptr, ptr }
%struct.GifImageDesc = type { i32, i32, i32, i32, i8, ptr }
%struct.GifFilePrivateType = type { i32, i32, i32, i32, i32, i32, i32, i32, i32, i32, i32, i32, i64, i64, ptr, ptr, ptr, [256 x i8], [4095 x i8], [4096 x i8], [4096 x i32], ptr, i8 }

; Function Attrs: nounwind uwtable
define hidden i32 @DGifCloseFile(ptr noundef %0, ptr noundef %1) #0 {
  %3 = alloca i32, align 4
  %4 = alloca ptr, align 8
  %5 = alloca ptr, align 8
  %6 = alloca ptr, align 8
  store ptr %0, ptr %4, align 8
  store ptr %1, ptr %5, align 8
  %7 = load ptr, ptr %4, align 8
  %8 = icmp eq ptr %7, null
  br i1 %8, label %14, label %9

9:                                                ; preds = %2
  %10 = load ptr, ptr %4, align 8
  %11 = getelementptr inbounds %struct.GifFileType, ptr %10, i32 0, i32 13
  %12 = load ptr, ptr %11, align 8
  %13 = icmp eq ptr %12, null
  br i1 %13, label %14, label %15

14:                                               ; preds = %9, %2
  store i32 0, ptr %3, align 4
  br label %103

15:                                               ; preds = %9
  %16 = load ptr, ptr %4, align 8
  %17 = getelementptr inbounds %struct.GifFileType, ptr %16, i32 0, i32 7
  %18 = getelementptr inbounds %struct.GifImageDesc, ptr %17, i32 0, i32 5
  %19 = load ptr, ptr %18, align 8
  %20 = icmp ne ptr %19, null
  br i1 %20, label %21, label %29

21:                                               ; preds = %15
  %22 = load ptr, ptr %4, align 8
  %23 = getelementptr inbounds %struct.GifFileType, ptr %22, i32 0, i32 7
  %24 = getelementptr inbounds %struct.GifImageDesc, ptr %23, i32 0, i32 5
  %25 = load ptr, ptr %24, align 8
  call void @GifFreeMapObject(ptr noundef %25)
  %26 = load ptr, ptr %4, align 8
  %27 = getelementptr inbounds %struct.GifFileType, ptr %26, i32 0, i32 7
  %28 = getelementptr inbounds %struct.GifImageDesc, ptr %27, i32 0, i32 5
  store ptr null, ptr %28, align 8
  br label %29

29:                                               ; preds = %21, %15
  %30 = load ptr, ptr %4, align 8
  %31 = getelementptr inbounds %struct.GifFileType, ptr %30, i32 0, i32 5
  %32 = load ptr, ptr %31, align 8
  %33 = icmp ne ptr %32, null
  br i1 %33, label %34, label %40

34:                                               ; preds = %29
  %35 = load ptr, ptr %4, align 8
  %36 = getelementptr inbounds %struct.GifFileType, ptr %35, i32 0, i32 5
  %37 = load ptr, ptr %36, align 8
  call void @GifFreeMapObject(ptr noundef %37)
  %38 = load ptr, ptr %4, align 8
  %39 = getelementptr inbounds %struct.GifFileType, ptr %38, i32 0, i32 5
  store ptr null, ptr %39, align 8
  br label %40

40:                                               ; preds = %34, %29
  %41 = load ptr, ptr %4, align 8
  %42 = getelementptr inbounds %struct.GifFileType, ptr %41, i32 0, i32 8
  %43 = load ptr, ptr %42, align 8
  %44 = icmp ne ptr %43, null
  br i1 %44, label %45, label %49

45:                                               ; preds = %40
  %46 = load ptr, ptr %4, align 8
  call void @GifFreeSavedImages(ptr noundef %46)
  %47 = load ptr, ptr %4, align 8
  %48 = getelementptr inbounds %struct.GifFileType, ptr %47, i32 0, i32 8
  store ptr null, ptr %48, align 8
  br label %49

49:                                               ; preds = %45, %40
  %50 = load ptr, ptr %4, align 8
  %51 = getelementptr inbounds %struct.GifFileType, ptr %50, i32 0, i32 9
  %52 = load ptr, ptr %4, align 8
  %53 = getelementptr inbounds %struct.GifFileType, ptr %52, i32 0, i32 10
  call void @GifFreeExtensions(ptr noundef %51, ptr noundef %53)
  %54 = load ptr, ptr %4, align 8
  %55 = getelementptr inbounds %struct.GifFileType, ptr %54, i32 0, i32 13
  %56 = load ptr, ptr %55, align 8
  store ptr %56, ptr %6, align 8
  %57 = load ptr, ptr %6, align 8
  %58 = getelementptr inbounds %struct.GifFilePrivateType, ptr %57, i32 0, i32 0
  %59 = load i32, ptr %58, align 8
  %60 = and i32 %59, 8
  %61 = icmp ne i32 %60, 0
  br i1 %61, label %72, label %62

62:                                               ; preds = %49
  %63 = load ptr, ptr %5, align 8
  %64 = icmp ne ptr %63, null
  br i1 %64, label %65, label %67

65:                                               ; preds = %62
  %66 = load ptr, ptr %5, align 8
  store i32 111, ptr %66, align 4
  br label %67

67:                                               ; preds = %65, %62
  %68 = load ptr, ptr %4, align 8
  %69 = getelementptr inbounds %struct.GifFileType, ptr %68, i32 0, i32 13
  %70 = load ptr, ptr %69, align 8
  call void @free(ptr noundef %70) #10
  %71 = load ptr, ptr %4, align 8
  call void @free(ptr noundef %71) #10
  store i32 0, ptr %3, align 4
  br label %103

72:                                               ; preds = %49
  %73 = load ptr, ptr %6, align 8
  %74 = getelementptr inbounds %struct.GifFilePrivateType, ptr %73, i32 0, i32 14
  %75 = load ptr, ptr %74, align 8
  %76 = icmp ne ptr %75, null
  br i1 %76, label %77, label %93

77:                                               ; preds = %72
  %78 = load ptr, ptr %6, align 8
  %79 = getelementptr inbounds %struct.GifFilePrivateType, ptr %78, i32 0, i32 14
  %80 = load ptr, ptr %79, align 8
  %81 = call i32 @fclose(ptr noundef %80)
  %82 = icmp ne i32 %81, 0
  br i1 %82, label %83, label %93

83:                                               ; preds = %77
  %84 = load ptr, ptr %5, align 8
  %85 = icmp ne ptr %84, null
  br i1 %85, label %86, label %88

86:                                               ; preds = %83
  %87 = load ptr, ptr %5, align 8
  store i32 110, ptr %87, align 4
  br label %88

88:                                               ; preds = %86, %83
  %89 = load ptr, ptr %4, align 8
  %90 = getelementptr inbounds %struct.GifFileType, ptr %89, i32 0, i32 13
  %91 = load ptr, ptr %90, align 8
  call void @free(ptr noundef %91) #10
  %92 = load ptr, ptr %4, align 8
  call void @free(ptr noundef %92) #10
  store i32 0, ptr %3, align 4
  br label %103

93:                                               ; preds = %77, %72
  %94 = load ptr, ptr %4, align 8
  %95 = getelementptr inbounds %struct.GifFileType, ptr %94, i32 0, i32 13
  %96 = load ptr, ptr %95, align 8
  call void @free(ptr noundef %96) #10
  %97 = load ptr, ptr %4, align 8
  call void @free(ptr noundef %97) #10
  %98 = load ptr, ptr %5, align 8
  %99 = icmp ne ptr %98, null
  br i1 %99, label %100, label %102

100:                                              ; preds = %93
  %101 = load ptr, ptr %5, align 8
  store i32 0, ptr %101, align 4
  br label %102

102:                                              ; preds = %100, %93
  store i32 1, ptr %3, align 4
  br label %103

103:                                              ; preds = %102, %88, %67, %14
  %104 = load i32, ptr %3, align 4
  ret i32 %104
}