; Function Attrs: nounwind uwtable
define hidden range(i32 0, 2) i32 @DGifCloseFile(ptr noundef %0, ptr noundef writeonly %1) local_unnamed_addr #0 {
  %3 = icmp eq ptr %0, null
  br i1 %3, label %42, label %4

4:                                                ; preds = %2
  %5 = getelementptr inbounds i8, ptr %0, i64 112
  %6 = load ptr, ptr %5, align 8
  %7 = icmp eq ptr %6, null
  br i1 %7, label %42, label %8

8:                                                ; preds = %4
  %9 = getelementptr inbounds i8, ptr %0, i64 64
  %10 = load ptr, ptr %9, align 8
  %.not = icmp eq ptr %10, null
  br i1 %.not, label %12, label %11

11:                                               ; preds = %8
  tail call void @GifFreeMapObject(ptr noundef nonnull %10) #14
  store ptr null, ptr %9, align 8
  br label %12

12:                                               ; preds = %11, %8
  %13 = getelementptr inbounds i8, ptr %0, i64 24
  %14 = load ptr, ptr %13, align 8
  %.not34 = icmp eq ptr %14, null
  br i1 %.not34, label %16, label %15

15:                                               ; preds = %12
  tail call void @GifFreeMapObject(ptr noundef nonnull %14) #14
  store ptr null, ptr %13, align 8
  br label %16

16:                                               ; preds = %15, %12
  %17 = getelementptr inbounds i8, ptr %0, i64 72
  %18 = load ptr, ptr %17, align 8
  %.not35 = icmp eq ptr %18, null
  br i1 %.not35, label %20, label %19

19:                                               ; preds = %16
  tail call void @GifFreeSavedImages(ptr noundef nonnull %0) #14
  store ptr null, ptr %17, align 8
  br label %20

20:                                               ; preds = %19, %16
  %21 = getelementptr inbounds i8, ptr %0, i64 80
  %22 = getelementptr inbounds i8, ptr %0, i64 88
  tail call void @GifFreeExtensions(ptr noundef nonnull %21, ptr noundef nonnull %22) #14
  %23 = load ptr, ptr %5, align 8
  %24 = load i32, ptr %23, align 8
  %25 = and i32 %24, 8
  %.not36 = icmp eq i32 %25, 0
  br i1 %.not36, label %26, label %30

26:                                               ; preds = %20
  %.not37 = icmp eq ptr %1, null
  br i1 %.not37, label %28, label %27

27:                                               ; preds = %26
  store i32 111, ptr %1, align 4
  %.pre42 = load ptr, ptr %5, align 8
  br label %28

28:                                               ; preds = %27, %26
  %29 = phi ptr [ %.pre42, %27 ], [ %23, %26 ]
  tail call void @free(ptr noundef %29) #14
  tail call void @free(ptr noundef nonnull %0) #14
  br label %42

30:                                               ; preds = %20
  %31 = getelementptr inbounds i8, ptr %23, i64 64
  %32 = load ptr, ptr %31, align 8
  %.not38 = icmp eq ptr %32, null
  br i1 %.not38, label %39, label %33

33:                                               ; preds = %30
  %34 = tail call i32 @fclose(ptr noundef nonnull %32)
  %.not39 = icmp eq i32 %34, 0
  br i1 %.not39, label %._crit_edge, label %35

._crit_edge:                                      ; preds = %33
  %.pre = load ptr, ptr %5, align 8
  br label %39

35:                                               ; preds = %33
  %.not41 = icmp eq ptr %1, null
  br i1 %.not41, label %37, label %36

36:                                               ; preds = %35
  store i32 110, ptr %1, align 4
  br label %37

37:                                               ; preds = %36, %35
  %38 = load ptr, ptr %5, align 8
  tail call void @free(ptr noundef %38) #14
  tail call void @free(ptr noundef nonnull %0) #14
  br label %42

39:                                               ; preds = %._crit_edge, %30
  %40 = phi ptr [ %.pre, %._crit_edge ], [ %23, %30 ]
  tail call void @free(ptr noundef %40) #14
  tail call void @free(ptr noundef nonnull %0) #14
  %.not40 = icmp eq ptr %1, null
  br i1 %.not40, label %42, label %41

41:                                               ; preds = %39
  store i32 0, ptr %1, align 4
  br label %42

42:                                               ; preds = %39, %41, %2, %4, %37, %28
  %.0 = phi i32 [ 0, %37 ], [ 0, %28 ], [ 0, %4 ], [ 0, %2 ], [ 1, %41 ], [ 1, %39 ]
  ret i32 %.0
}